target datalayout = "e-m:e-p270:32:32-p271:32:32-p272:64:64-i64:64-i128:128-f80:128-n8:16:32:64-S128"
target triple = "x86_64-pc-linux-gnu"

%"class.cv::utils::trace::details::Region" = type <{ ptr, i32, [4 x i8] }>

; Function Attrs: mustprogress uwtable
define void @_ZN2cv4idctERKNS_11_InputArrayERKNS_12_OutputArrayEi(ptr noundef nonnull align 8 dereferenceable(24) %0, ptr noundef nonnull align 8 dereferenceable(24) %1, i32 noundef %2) #0 personality ptr @__gxx_personality_v0 {
  %4 = alloca ptr, align 8
  %5 = alloca ptr, align 8
  %6 = alloca i32, align 4
  %7 = alloca %"class.cv::utils::trace::details::Region", align 8
  %8 = alloca ptr, align 8
  %9 = alloca i32, align 4
  store ptr %0, ptr %4, align 8, !tbaa !94
  store ptr %1, ptr %5, align 8, !tbaa !96
  store i32 %2, ptr %6, align 4, !tbaa !3
  call void @llvm.lifetime.start.p0(i64 16, ptr %7) #19
  call void @_ZN2cv5utils5trace7details6RegionC1ERKNS3_21LocationStaticStorageE(ptr noundef nonnull align 8 dereferenceable(12) %7, ptr noundef nonnull align 8 dereferenceable(32) @_ZZN2cv4idctERKNS_11_InputArrayERKNS_12_OutputArrayEiE26__cv_trace_location_fn4434)
  %10 = load ptr, ptr %4, align 8, !tbaa !94
  %11 = load ptr, ptr %5, align 8, !tbaa !96
  %12 = load i32, ptr %6, align 4, !tbaa !3
  %13 = or i32 %12, 1
  invoke void @_ZN2cv3dctERKNS_11_InputArrayERKNS_12_OutputArrayEi(ptr noundef nonnull align 8 dereferenceable(24) %10, ptr noundef nonnull align 8 dereferenceable(24) %11, i32 noundef %13)
          to label %14 unwind label %15

14:                                               ; preds = %3
  call void @_ZN2cv5utils5trace7details6RegionD2Ev(ptr noundef nonnull align 8 dereferenceable(12) %7) #19
  call void @llvm.lifetime.end.p0(i64 16, ptr %7) #19
  ret void

15:                                               ; preds = %3
  %16 = landingpad { ptr, i32 }
          cleanup
  %17 = extractvalue { ptr, i32 } %16, 0
  store ptr %17, ptr %8, align 8
  %18 = extractvalue { ptr, i32 } %16, 1
  store i32 %18, ptr %9, align 4
  call void @_ZN2cv5utils5trace7details6RegionD2Ev(ptr noundef nonnull align 8 dereferenceable(12) %7) #19
  call void @llvm.lifetime.end.p0(i64 16, ptr %7) #19
  br label %19

19:                                               ; preds = %15
  %20 = load ptr, ptr %8, align 8
  %21 = load i32, ptr %9, align 4
  %22 = insertvalue { ptr, i32 } poison, ptr %20, 0
  %23 = insertvalue { ptr, i32 } %22, i32 %21, 1
  resume { ptr, i32 } %23
}